target datalayout = "e-m:e-p270:32:32-p271:32:32-p272:64:64-i64:64-i128:128-f80:128-n8:16:32:64-S128"
target triple = "x86_64-pc-linux-gnu"

%union.pthread_mutex_t = type { %struct.__pthread_mutex_s }
%struct.__pthread_mutex_s = type { i32, i32, i32, i32, i32, i16, i16, %struct.__pthread_internal_list }
%struct.__pthread_internal_list = type { ptr, ptr }

@item_locks = internal global ptr null, align 8
@item_lock_hashpower = internal global i32 0, align 4
@hash = external global ptr, align 8

; Function Attrs: nounwind uwtable
define dso_local void @item_unlock(i32 noundef %0) #0 {
  %2 = alloca i32, align 4
  store i32 %0, ptr %2, align 4, !tbaa !4
  %3 = load ptr, ptr @item_locks, align 8, !tbaa !8
  %4 = load i32, ptr %2, align 4, !tbaa !4
  %5 = zext i32 %4 to i64
  %6 = load i32, ptr @item_lock_hashpower, align 4, !tbaa !4
  %7 = zext i32 %6 to i64
  %8 = shl i64 1, %7
  %9 = sub i64 %8, 1
  %10 = and i64 %5, %9
  %11 = getelementptr inbounds nuw %union.pthread_mutex_t, ptr %3, i64 %10
  %12 = call i32 @pthread_mutex_unlock(ptr noundef %11) #8
  ret void
}

; Function Attrs: nounwind uwtable
define dso_local void @item_lock(i32 noundef %0) #0 {
  %2 = alloca i32, align 4
  store i32 %0, ptr %2, align 4, !tbaa !4
  %3 = load ptr, ptr @item_locks, align 8, !tbaa !8
  %4 = load i32, ptr %2, align 4, !tbaa !4
  %5 = zext i32 %4 to i64
  %6 = load i32, ptr @item_lock_hashpower, align 4, !tbaa !4
  %7 = zext i32 %6 to i64
  %8 = shl i64 1, %7
  %9 = sub i64 %8, 1
  %10 = and i64 %5, %9
  %11 = getelementptr inbounds nuw %union.pthread_mutex_t, ptr %3, i64 %10
  %12 = call i32 @pthread_mutex_lock(ptr noundef %11) #8
  ret void
}

; Function Attrs: nounwind uwtable
define dso_local ptr @item_touch(ptr noundef %0, i64 noundef %1, i32 noundef %2, ptr noundef %3) #0 {
  %5 = alloca ptr, align 8
  %6 = alloca i64, align 8
  %7 = alloca i32, align 4
  %8 = alloca ptr, align 8
  %9 = alloca ptr, align 8
  %10 = alloca i32, align 4
  store ptr %0, ptr %5, align 8, !tbaa !59
  store i64 %1, ptr %6, align 8, !tbaa !58
  store i32 %2, ptr %7, align 4, !tbaa !4
  store ptr %3, ptr %8, align 8, !tbaa !8
  call void @llvm.lifetime.start.p0(i64 8, ptr %9) #8
  call void @llvm.lifetime.start.p0(i64 4, ptr %10) #8
  %11 = load ptr, ptr @hash, align 8, !tbaa !8
  %12 = load ptr, ptr %5, align 8, !tbaa !59
  %13 = load i64, ptr %6, align 8, !tbaa !58
  %14 = call i32 %11(ptr noundef %12, i64 noundef %13)
  store i32 %14, ptr %10, align 4, !tbaa !4
  %15 = load i32, ptr %10, align 4, !tbaa !4
  call void @item_lock(i32 noundef %15)
  %16 = load ptr, ptr %5, align 8, !tbaa !59
  %17 = load i64, ptr %6, align 8, !tbaa !58
  %18 = load i32, ptr %7, align 4, !tbaa !4
  %19 = load i32, ptr %10, align 4, !tbaa !4
  %20 = load ptr, ptr %8, align 8, !tbaa !8
  %21 = call ptr @do_item_touch(ptr noundef %16, i64 noundef %17, i32 noundef %18, i32 noundef %19, ptr noundef %20)
  store ptr %21, ptr %9, align 8, !tbaa !97
  %22 = load i32, ptr %10, align 4, !tbaa !4
  call void @item_unlock(i32 noundef %22)
  %23 = load ptr, ptr %9, align 8, !tbaa !97
  call void @llvm.lifetime.end.p0(i64 4, ptr %10) #8
  call void @llvm.lifetime.end.p0(i64 8, ptr %9) #8
  ret ptr %23
}