; Function Attrs: nounwind uwtable
define dso_local ptr @item_touch(ptr noundef %0, i64 noundef %1, i32 noundef %2, ptr noundef %3) local_unnamed_addr #0 {
  %5 = load ptr, ptr @hash, align 8, !tbaa !4
  %6 = tail call i32 %5(ptr noundef %0, i64 noundef %1) #15
  %7 = load ptr, ptr @item_locks, align 8, !tbaa !4
  %8 = zext i32 %6 to i64
  %9 = load i32, ptr @item_lock_hashpower, align 4, !tbaa !8
  %10 = zext nneg i32 %9 to i64
  %notmask.i = shl nsw i64 -1, %10
  %11 = xor i64 %notmask.i, -1
  %12 = and i64 %11, %8
  %13 = getelementptr inbounds nuw %union.pthread_mutex_t, ptr %7, i64 %12
  %14 = tail call i32 @pthread_mutex_lock(ptr noundef %13) #15
  %15 = tail call ptr @do_item_touch(ptr noundef %0, i64 noundef %1, i32 noundef %2, i32 noundef %6, ptr noundef %3) #15
  %16 = load ptr, ptr @item_locks, align 8, !tbaa !4
  %17 = load i32, ptr @item_lock_hashpower, align 4, !tbaa !8
  %18 = zext nneg i32 %17 to i64
  %notmask.i9 = shl nsw i64 -1, %18
  %19 = xor i64 %notmask.i9, -1
  %20 = and i64 %19, %8
  %21 = getelementptr inbounds nuw %union.pthread_mutex_t, ptr %16, i64 %20
  %22 = tail call i32 @pthread_mutex_unlock(ptr noundef %21) #15
  ret ptr %15
}